target datalayout = "e-m:e-p270:32:32-p271:32:32-p272:64:64-i64:64-i128:128-f80:128-n8:16:32:64-S128"
target triple = "x86_64-pc-linux-gnu"

%struct.strvec = type { ptr, i64, i64 }
%struct.strbuf = type { i64, i64, ptr }
%struct.recent_data = type { ptr, i64, ptr, i32, %struct.oidset, i32 }
%struct.oidset = type { %struct.kh_oid_set }
%struct.kh_oid_set = type { i32, i32, i32, i32, ptr, ptr, ptr }
%struct.string_list = type { ptr, i64, i64, i8, ptr }
%struct.object_id = type { [32 x i8], i32 }
%struct.string_list_item = type { ptr, ptr }
%struct.child_process = type { %struct.strvec, %struct.strvec, i32, i32, i64, ptr, ptr, i32, i32, i32, ptr, i16, ptr }

@the_repository = external global ptr, align 8
@.str.3 = private unnamed_addr constant [33 x i8] c"unable to get object info for %s\00", align 1
@.str.4 = private unnamed_addr constant [31 x i8] c"unknown object type for %s: %s\00", align 1
@.str.5 = private unnamed_addr constant [20 x i8] c"unable to lookup %s\00", align 1
@.str.6 = private unnamed_addr constant [1 x i8] zeroinitializer, align 1
@.str.7 = private unnamed_addr constant [21 x i8] c"gc.recentobjectshook\00", align 1
@.str.8 = private unnamed_addr constant [46 x i8] c"unable to enumerate additional recent objects\00", align 1
@__const.run_one_gc_recent_objects_hook.buf = private unnamed_addr constant %struct.strbuf { i64 0, i64 0, ptr @strbuf_slopbuf }, align 8
@.str.9 = private unnamed_addr constant [2 x i8] c"r\00", align 1
@.str.10 = private unnamed_addr constant [30 x i8] c"invalid extra cruft tip: '%s'\00", align 1

; Function Attrs: inlinehint nounwind uwtable
define internal i32 @const_error() #4 {
  ret i32 -1
}

; Function Attrs: nounwind uwtable
define internal i32 @run_one_gc_recent_objects_hook(ptr noundef %0, ptr noundef %1) #0 {
  %3 = alloca i32, align 4
  %4 = alloca ptr, align 8
  %5 = alloca ptr, align 8
  %6 = alloca %struct.child_process, align 8
  %7 = alloca %struct.strbuf, align 8
  %8 = alloca ptr, align 8
  %9 = alloca i32, align 4
  %10 = alloca i32, align 4
  %11 = alloca %struct.object_id, align 4
  %12 = alloca ptr, align 8
  store ptr %0, ptr %4, align 8, !tbaa !107
  store ptr %1, ptr %5, align 8, !tbaa !70
  call void @llvm.lifetime.start.p0(i64 120, ptr %6) #9
  call void @llvm.memcpy.p0.p0.i64(ptr align 8 %6, ptr align 8 @__const.run_one_gc_recent_objects_hook.cmd, i64 120, i1 false)
  call void @llvm.lifetime.start.p0(i64 24, ptr %7) #9
  call void @llvm.memcpy.p0.p0.i64(ptr align 8 %7, ptr align 8 @__const.run_one_gc_recent_objects_hook.buf, i64 24, i1 false)
  call void @llvm.lifetime.start.p0(i64 8, ptr %8) #9
  call void @llvm.lifetime.start.p0(i64 4, ptr %9) #9
  store i32 0, ptr %9, align 4, !tbaa !12
  %13 = getelementptr inbounds nuw %struct.child_process, ptr %6, i32 0, i32 11
  %14 = load i16, ptr %13, align 8
  %15 = and i16 %14, -33
  %16 = or i16 %15, 32
  store i16 %16, ptr %13, align 8
  %17 = getelementptr inbounds nuw %struct.child_process, ptr %6, i32 0, i32 8
  store i32 -1, ptr %17, align 4, !tbaa !108
  %18 = getelementptr inbounds nuw %struct.child_process, ptr %6, i32 0, i32 0
  %19 = load ptr, ptr %5, align 8, !tbaa !70
  %20 = call ptr @strvec_push(ptr noundef %18, ptr noundef %19)
  %21 = call i32 @start_command(ptr noundef %6)
  %22 = icmp ne i32 %21, 0
  br i1 %22, label %23, label %24

23:                                               ; preds = %2
  store i32 -1, ptr %3, align 4
  store i32 1, ptr %10, align 4
  br label %61

24:                                               ; preds = %2
  %25 = getelementptr inbounds nuw %struct.child_process, ptr %6, i32 0, i32 8
  %26 = load i32, ptr %25, align 4, !tbaa !108
  %27 = call ptr @xfdopen(i32 noundef %26, ptr noundef @.str.9)
  store ptr %27, ptr %8, align 8, !tbaa !110
  br label %28

28:                                               ; preds = %53, %24
  %29 = load ptr, ptr %8, align 8, !tbaa !110
  %30 = call i32 @strbuf_getline(ptr noundef %7, ptr noundef %29)
  %31 = icmp ne i32 %30, -1
  br i1 %31, label %32, label %54

32:                                               ; preds = %28
  call void @llvm.lifetime.start.p0(i64 36, ptr %11) #9
  call void @llvm.lifetime.start.p0(i64 8, ptr %12) #9
  %33 = getelementptr inbounds nuw %struct.strbuf, ptr %7, i32 0, i32 2
  %34 = load ptr, ptr %33, align 8, !tbaa !91
  %35 = call i32 @parse_oid_hex(ptr noundef %34, ptr noundef %11, ptr noundef %12)
  %36 = icmp ne i32 %35, 0
  br i1 %36, label %42, label %37

37:                                               ; preds = %32
  %38 = load ptr, ptr %12, align 8, !tbaa !70
  %39 = load i8, ptr %38, align 1, !tbaa !111
  %40 = sext i8 %39 to i32
  %41 = icmp ne i32 %40, 0
  br i1 %41, label %42, label %48

42:                                               ; preds = %37, %32
  %43 = call ptr @_(ptr noundef @.str.10)
  %44 = getelementptr inbounds nuw %struct.strbuf, ptr %7, i32 0, i32 2
  %45 = load ptr, ptr %44, align 8, !tbaa !91
  %46 = call i32 (ptr, ...) @error(ptr noundef %43, ptr noundef %45)
  %47 = call i32 @const_error()
  store i32 %47, ptr %9, align 4, !tbaa !12
  store i32 3, ptr %10, align 4
  br label %51

48:                                               ; preds = %37
  %49 = load ptr, ptr %4, align 8, !tbaa !107
  %50 = call i32 @oidset_insert(ptr noundef %49, ptr noundef %11)
  store i32 0, ptr %10, align 4
  br label %51

51:                                               ; preds = %48, %42
  call void @llvm.lifetime.end.p0(i64 8, ptr %12) #9
  call void @llvm.lifetime.end.p0(i64 36, ptr %11) #9
  %52 = load i32, ptr %10, align 4
  switch i32 %52, label %63 [
    i32 0, label %53
    i32 3, label %54
  ]

53:                                               ; preds = %51
  br label %28, !llvm.loop !112

54:                                               ; preds = %51, %28
  %55 = load ptr, ptr %8, align 8, !tbaa !110
  %56 = call i32 @fclose(ptr noundef %55)
  %57 = call i32 @finish_command(ptr noundef %6)
  %58 = load i32, ptr %9, align 4, !tbaa !12
  %59 = or i32 %58, %57
  store i32 %59, ptr %9, align 4, !tbaa !12
  call void @strbuf_release(ptr noundef %7)
  %60 = load i32, ptr %9, align 4, !tbaa !12
  store i32 %60, ptr %3, align 4
  store i32 1, ptr %10, align 4
  br label %61

61:                                               ; preds = %54, %23
  call void @llvm.lifetime.end.p0(i64 4, ptr %9) #9
  call void @llvm.lifetime.end.p0(i64 8, ptr %8) #9
  call void @llvm.lifetime.end.p0(i64 24, ptr %7) #9
  call void @llvm.lifetime.end.p0(i64 120, ptr %6) #9
  %62 = load i32, ptr %3, align 4
  ret i32 %62

63:                                               ; preds = %51
  unreachable
}

; Function Attrs: inlinehint nounwind uwtable
define internal i32 @git_config_get_string_multi(ptr noundef %0, ptr noundef %1) #4 {
  %3 = alloca ptr, align 8
  %4 = alloca ptr, align 8
  store ptr %0, ptr %3, align 8, !tbaa !70
  store ptr %1, ptr %4, align 8, !tbaa !105
  %5 = load ptr, ptr @the_repository, align 8, !tbaa !71
  %6 = load ptr, ptr %3, align 8, !tbaa !70
  %7 = load ptr, ptr %4, align 8, !tbaa !105
  %8 = call i32 @repo_config_get_string_multi(ptr noundef %5, ptr noundef %6, ptr noundef %7)
  ret i32 %8
}

; Function Attrs: nounwind uwtable
define internal void @load_gc_recent_objects(ptr noundef %0) #0 {
  %2 = alloca ptr, align 8
  %3 = alloca ptr, align 8
  %4 = alloca i32, align 4
  %5 = alloca i64, align 8
  %6 = alloca i32, align 4
  store ptr %0, ptr %2, align 8, !tbaa !97
  call void @llvm.lifetime.start.p0(i64 8, ptr %3) #9
  call void @llvm.lifetime.start.p0(i64 4, ptr %4) #9
  store i32 0, ptr %4, align 4, !tbaa !12
  call void @llvm.lifetime.start.p0(i64 8, ptr %5) #9
  %7 = load ptr, ptr %2, align 8, !tbaa !97
  %8 = getelementptr inbounds nuw %struct.recent_data, ptr %7, i32 0, i32 5
  store i32 1, ptr %8, align 8, !tbaa !23
  %9 = call i32 @git_config_get_string_multi(ptr noundef @.str.7, ptr noundef %3)
  %10 = icmp ne i32 %9, 0
  br i1 %10, label %11, label %12

11:                                               ; preds = %1
  store i32 1, ptr %6, align 4
  br label %39

12:                                               ; preds = %1
  store i64 0, ptr %5, align 8, !tbaa !9
  br label %13

13:                                               ; preds = %35, %12
  %14 = load i64, ptr %5, align 8, !tbaa !9
  %15 = load ptr, ptr %3, align 8, !tbaa !99
  %16 = getelementptr inbounds nuw %struct.string_list, ptr %15, i32 0, i32 1
  %17 = load i64, ptr %16, align 8, !tbaa !100
  %18 = icmp ult i64 %14, %17
  br i1 %18, label %19, label %38

19:                                               ; preds = %13
  %20 = load ptr, ptr %2, align 8, !tbaa !97
  %21 = getelementptr inbounds nuw %struct.recent_data, ptr %20, i32 0, i32 4
  %22 = load ptr, ptr %3, align 8, !tbaa !99
  %23 = getelementptr inbounds nuw %struct.string_list, ptr %22, i32 0, i32 0
  %24 = load ptr, ptr %23, align 8, !tbaa !101
  %25 = load i64, ptr %5, align 8, !tbaa !9
  %26 = getelementptr inbounds nuw %struct.string_list_item, ptr %24, i64 %25
  %27 = getelementptr inbounds nuw %struct.string_list_item, ptr %26, i32 0, i32 0
  %28 = load ptr, ptr %27, align 8, !tbaa !102
  %29 = call i32 @run_one_gc_recent_objects_hook(ptr noundef %21, ptr noundef %28)
  store i32 %29, ptr %4, align 4, !tbaa !12
  %30 = load i32, ptr %4, align 4, !tbaa !12
  %31 = icmp ne i32 %30, 0
  br i1 %31, label %32, label %34

32:                                               ; preds = %19
  %33 = call ptr @_(ptr noundef @.str.8)
  call void (ptr, ...) @die(ptr noundef %33) #11
  unreachable

34:                                               ; preds = %19
  br label %35

35:                                               ; preds = %34
  %36 = load i64, ptr %5, align 8, !tbaa !9
  %37 = add i64 %36, 1
  store i64 %37, ptr %5, align 8, !tbaa !9
  br label %13, !llvm.loop !104

38:                                               ; preds = %13
  store i32 0, ptr %6, align 4
  br label %39

39:                                               ; preds = %38, %11
  call void @llvm.lifetime.end.p0(i64 8, ptr %5) #9
  call void @llvm.lifetime.end.p0(i64 4, ptr %4) #9
  call void @llvm.lifetime.end.p0(i64 8, ptr %3) #9
  %40 = load i32, ptr %6, align 4
  switch i32 %40, label %42 [
    i32 0, label %41
    i32 1, label %41
  ]

41:                                               ; preds = %39, %39
  ret void

42:                                               ; preds = %39
  unreachable
}

; Function Attrs: nounwind uwtable
define internal i32 @obj_is_recent(ptr noundef %0, i64 noundef %1, ptr noundef %2) #0 {
  %4 = alloca i32, align 4
  %5 = alloca ptr, align 8
  %6 = alloca i64, align 8
  %7 = alloca ptr, align 8
  store ptr %0, ptr %5, align 8, !tbaa !69
  store i64 %1, ptr %6, align 8, !tbaa !9
  store ptr %2, ptr %7, align 8, !tbaa !97
  %8 = load i64, ptr %6, align 8, !tbaa !9
  %9 = load ptr, ptr %7, align 8, !tbaa !97
  %10 = getelementptr inbounds nuw %struct.recent_data, ptr %9, i32 0, i32 1
  %11 = load i64, ptr %10, align 8, !tbaa !20
  %12 = icmp ugt i64 %8, %11
  br i1 %12, label %13, label %14

13:                                               ; preds = %3
  store i32 1, ptr %4, align 4
  br label %26

14:                                               ; preds = %3
  %15 = load ptr, ptr %7, align 8, !tbaa !97
  %16 = getelementptr inbounds nuw %struct.recent_data, ptr %15, i32 0, i32 5
  %17 = load i32, ptr %16, align 8, !tbaa !23
  %18 = icmp ne i32 %17, 0
  br i1 %18, label %21, label %19

19:                                               ; preds = %14
  %20 = load ptr, ptr %7, align 8, !tbaa !97
  call void @load_gc_recent_objects(ptr noundef %20)
  br label %21

21:                                               ; preds = %19, %14
  %22 = load ptr, ptr %7, align 8, !tbaa !97
  %23 = getelementptr inbounds nuw %struct.recent_data, ptr %22, i32 0, i32 4
  %24 = load ptr, ptr %5, align 8, !tbaa !69
  %25 = call i32 @oidset_contains(ptr noundef %23, ptr noundef %24)
  store i32 %25, ptr %4, align 4
  br label %26

26:                                               ; preds = %21, %13
  %27 = load i32, ptr %4, align 4
  ret i32 %27
}

; Function Attrs: nounwind uwtable
define internal void @add_recent_object(ptr noundef %0, ptr noundef %1, i64 noundef %2, i64 noundef %3, ptr noundef %4) #0 {
  %6 = alloca ptr, align 8
  %7 = alloca ptr, align 8
  %8 = alloca i64, align 8
  %9 = alloca i64, align 8
  %10 = alloca ptr, align 8
  %11 = alloca ptr, align 8
  %12 = alloca i32, align 4
  %13 = alloca i32, align 4
  store ptr %0, ptr %6, align 8, !tbaa !69
  store ptr %1, ptr %7, align 8, !tbaa !77
  store i64 %2, ptr %8, align 8, !tbaa !9
  store i64 %3, ptr %9, align 8, !tbaa !9
  store ptr %4, ptr %10, align 8, !tbaa !97
  call void @llvm.lifetime.start.p0(i64 8, ptr %11) #9
  call void @llvm.lifetime.start.p0(i64 4, ptr %12) #9
  %14 = load ptr, ptr %6, align 8, !tbaa !69
  %15 = load i64, ptr %9, align 8, !tbaa !9
  %16 = load ptr, ptr %10, align 8, !tbaa !97
  %17 = call i32 @obj_is_recent(ptr noundef %14, i64 noundef %15, ptr noundef %16)
  %18 = icmp ne i32 %17, 0
  br i1 %18, label %20, label %19

19:                                               ; preds = %5
  store i32 1, ptr %13, align 4
  br label %71

20:                                               ; preds = %5
  %21 = load ptr, ptr @the_repository, align 8, !tbaa !71
  %22 = load ptr, ptr %6, align 8, !tbaa !69
  %23 = call i32 @oid_object_info(ptr noundef %21, ptr noundef %22, ptr noundef null)
  store i32 %23, ptr %12, align 4, !tbaa !12
  %24 = load i32, ptr %12, align 4, !tbaa !12
  %25 = icmp slt i32 %24, 0
  br i1 %25, label %26, label %29

26:                                               ; preds = %20
  %27 = load ptr, ptr %6, align 8, !tbaa !69
  %28 = call ptr @oid_to_hex(ptr noundef %27)
  call void (ptr, ...) @die(ptr noundef @.str.3, ptr noundef %28) #11
  unreachable

29:                                               ; preds = %20
  %30 = load i32, ptr %12, align 4, !tbaa !12
  switch i32 %30, label %42 [
    i32 4, label %31
    i32 1, label %31
    i32 2, label %34
    i32 3, label %38
  ]

31:                                               ; preds = %29, %29
  %32 = load ptr, ptr %6, align 8, !tbaa !69
  %33 = call ptr @parse_object_or_die(ptr noundef %32, ptr noundef null)
  store ptr %33, ptr %11, align 8, !tbaa !72
  br label %47

34:                                               ; preds = %29
  %35 = load ptr, ptr @the_repository, align 8, !tbaa !71
  %36 = load ptr, ptr %6, align 8, !tbaa !69
  %37 = call ptr @lookup_tree(ptr noundef %35, ptr noundef %36)
  store ptr %37, ptr %11, align 8, !tbaa !72
  br label %47

38:                                               ; preds = %29
  %39 = load ptr, ptr @the_repository, align 8, !tbaa !71
  %40 = load ptr, ptr %6, align 8, !tbaa !69
  %41 = call ptr @lookup_blob(ptr noundef %39, ptr noundef %40)
  store ptr %41, ptr %11, align 8, !tbaa !72
  br label %47

42:                                               ; preds = %29
  %43 = load ptr, ptr %6, align 8, !tbaa !69
  %44 = call ptr @oid_to_hex(ptr noundef %43)
  %45 = load i32, ptr %12, align 4, !tbaa !12
  %46 = call ptr @type_name(i32 noundef %45)
  call void (ptr, ...) @die(ptr noundef @.str.4, ptr noundef %44, ptr noundef %46) #11
  unreachable

47:                                               ; preds = %38, %34, %31
  %48 = load ptr, ptr %11, align 8, !tbaa !72
  %49 = icmp ne ptr %48, null
  br i1 %49, label %53, label %50

50:                                               ; preds = %47
  %51 = load ptr, ptr %6, align 8, !tbaa !69
  %52 = call ptr @oid_to_hex(ptr noundef %51)
  call void (ptr, ...) @die(ptr noundef @.str.5, ptr noundef %52) #11
  unreachable

53:                                               ; preds = %47
  %54 = load ptr, ptr %10, align 8, !tbaa !97
  %55 = getelementptr inbounds nuw %struct.recent_data, ptr %54, i32 0, i32 0
  %56 = load ptr, ptr %55, align 8, !tbaa !14
  %57 = load ptr, ptr %11, align 8, !tbaa !72
  call void @add_pending_object(ptr noundef %56, ptr noundef %57, ptr noundef @.str.6)
  %58 = load ptr, ptr %10, align 8, !tbaa !97
  %59 = getelementptr inbounds nuw %struct.recent_data, ptr %58, i32 0, i32 2
  %60 = load ptr, ptr %59, align 8, !tbaa !21
  %61 = icmp ne ptr %60, null
  br i1 %61, label %62, label %70

62:                                               ; preds = %53
  %63 = load ptr, ptr %10, align 8, !tbaa !97
  %64 = getelementptr inbounds nuw %struct.recent_data, ptr %63, i32 0, i32 2
  %65 = load ptr, ptr %64, align 8, !tbaa !21
  %66 = load ptr, ptr %11, align 8, !tbaa !72
  %67 = load ptr, ptr %7, align 8, !tbaa !77
  %68 = load i64, ptr %8, align 8, !tbaa !9
  %69 = load i64, ptr %9, align 8, !tbaa !9
  call void %65(ptr noundef %66, ptr noundef %67, i64 noundef %68, i64 noundef %69)
  br label %70

70:                                               ; preds = %62, %53
  store i32 0, ptr %13, align 4
  br label %71

71:                                               ; preds = %70, %19
  call void @llvm.lifetime.end.p0(i64 4, ptr %12) #9
  call void @llvm.lifetime.end.p0(i64 8, ptr %11) #9
  %72 = load i32, ptr %13, align 4
  switch i32 %72, label %74 [
    i32 0, label %73
    i32 1, label %73
  ]

73:                                               ; preds = %71, %71
  ret void

74:                                               ; preds = %71
  unreachable
}