; Function Attrs: nounwind uwtable
define internal fastcc void @add_recent_object(ptr noundef %0, ptr noundef %1, i64 noundef %2, i64 noundef %3, ptr noundef %4) unnamed_addr #0 {
  %6 = alloca %struct.child_process, align 8
  %7 = alloca %struct.strbuf, align 8
  %8 = alloca %struct.object_id, align 4
  %9 = alloca ptr, align 8
  %10 = alloca ptr, align 8
  %11 = getelementptr inbounds nuw i8, ptr %4, i64 8
  %12 = load i64, ptr %11, align 8, !tbaa !16
  %13 = icmp ugt i64 %3, %12
  br i1 %13, label %obj_is_recent.exit.thread, label %14

14:                                               ; preds = %5
  %15 = getelementptr inbounds nuw i8, ptr %4, i64 72
  %16 = load i32, ptr %15, align 8, !tbaa !19
  %.not.i = icmp eq i32 %16, 0
  br i1 %.not.i, label %17, label %obj_is_recent.exit

17:                                               ; preds = %14
  call void @llvm.lifetime.start.p0(i64 8, ptr nonnull %10) #11
  store i32 1, ptr %15, align 8, !tbaa !19
  %18 = load ptr, ptr @the_repository, align 8, !tbaa !65
  %19 = call i32 @repo_config_get_string_multi(ptr noundef %18, ptr noundef nonnull @.str.7, ptr noundef nonnull %10) #11
  %.not.i.i = icmp eq i32 %19, 0
  br i1 %.not.i.i, label %.preheader.i.i, label %load_gc_recent_objects.exit.i

.preheader.i.i:                                   ; preds = %17
  %20 = load ptr, ptr %10, align 8, !tbaa !85
  %21 = getelementptr inbounds nuw i8, ptr %20, i64 8
  %22 = load i64, ptr %21, align 8, !tbaa !86
  %.not10.i.i = icmp eq i64 %22, 0
  br i1 %.not10.i.i, label %load_gc_recent_objects.exit.i, label %.lr.ph.i.i

.lr.ph.i.i:                                       ; preds = %.preheader.i.i
  %23 = getelementptr inbounds nuw i8, ptr %4, i64 32
  %24 = getelementptr inbounds nuw i8, ptr %6, i64 104
  %25 = getelementptr inbounds nuw i8, ptr %6, i64 84
  %26 = getelementptr inbounds nuw i8, ptr %7, i64 16
  br label %33

27:                                               ; preds = %run_one_gc_recent_objects_hook.exit.i.i
  %28 = add nuw i64 %.09.i.i, 1
  %29 = load ptr, ptr %10, align 8, !tbaa !85
  %30 = getelementptr inbounds nuw i8, ptr %29, i64 8
  %31 = load i64, ptr %30, align 8, !tbaa !86
  %32 = icmp ult i64 %28, %31
  br i1 %32, label %33, label %load_gc_recent_objects.exit.i, !llvm.loop !87

33:                                               ; preds = %27, %.lr.ph.i.i
  %34 = phi ptr [ %20, %.lr.ph.i.i ], [ %29, %27 ]
  %.09.i.i = phi i64 [ 0, %.lr.ph.i.i ], [ %28, %27 ]
  %35 = load ptr, ptr %34, align 8, !tbaa !88
  %36 = getelementptr inbounds nuw %struct.string_list_item, ptr %35, i64 %.09.i.i
  %37 = load ptr, ptr %36, align 8, !tbaa !89
  call void @llvm.lifetime.start.p0(i64 120, ptr nonnull %6) #11
  call void @llvm.memcpy.p0.p0.i64(ptr noundef nonnull align 8 dereferenceable(120) %6, ptr noundef nonnull align 8 dereferenceable(120) @__const.run_one_gc_recent_objects_hook.cmd, i64 120, i1 false)
  call void @llvm.lifetime.start.p0(i64 24, ptr nonnull %7) #11
  call void @llvm.memcpy.p0.p0.i64(ptr noundef nonnull align 8 dereferenceable(24) %7, ptr noundef nonnull align 8 dereferenceable(24) @__const.add_one_file.buf, i64 24, i1 false)
  store i16 32, ptr %24, align 8
  store i32 -1, ptr %25, align 4, !tbaa !91
  %38 = call ptr @strvec_push(ptr noundef nonnull %6, ptr noundef %37) #11
  %39 = call i32 @start_command(ptr noundef nonnull %6) #11
  %.not.i.i.i = icmp eq i32 %39, 0
  br i1 %.not.i.i.i, label %40, label %run_one_gc_recent_objects_hook.exit.thread.i.i

run_one_gc_recent_objects_hook.exit.thread.i.i:   ; preds = %33
  call void @llvm.lifetime.end.p0(i64 24, ptr nonnull %7) #11
  call void @llvm.lifetime.end.p0(i64 120, ptr nonnull %6) #11
  br label %.loopexit8.i.i

40:                                               ; preds = %33
  %41 = load i32, ptr %25, align 4, !tbaa !91
  %42 = call ptr @xfdopen(i32 noundef %41, ptr noundef nonnull @.str.9) #11
  %43 = call i32 @strbuf_getline(ptr noundef nonnull %7, ptr noundef %42) #11
  %.not915.i.i.i = icmp eq i32 %43, -1
  br i1 %.not915.i.i.i, label %run_one_gc_recent_objects_hook.exit.i.i, label %.lr.ph.i.i.i

.lr.ph.i.i.i:                                     ; preds = %40, %55
  call void @llvm.lifetime.start.p0(i64 36, ptr nonnull %8) #11
  call void @llvm.lifetime.start.p0(i64 8, ptr nonnull %9) #11
  %44 = load ptr, ptr %26, align 8, !tbaa !74
  %45 = call i32 @parse_oid_hex(ptr noundef %44, ptr noundef nonnull %8, ptr noundef nonnull %9) #11
  %.not10.i.i.i = icmp eq i32 %45, 0
  br i1 %.not10.i.i.i, label %46, label %49

46:                                               ; preds = %.lr.ph.i.i.i
  %47 = load ptr, ptr %9, align 8, !tbaa !79
  %48 = load i8, ptr %47, align 1, !tbaa !75
  %.not11.i.i.i = icmp eq i8 %48, 0
  br i1 %.not11.i.i.i, label %55, label %49

49:                                               ; preds = %46, %.lr.ph.i.i.i
  %50 = load i32, ptr @git_gettext_enabled, align 4, !tbaa !66
  %.not4.i.i.i.i = icmp eq i32 %50, 0
  br i1 %.not4.i.i.i.i, label %.thread.i.i.i, label %51

51:                                               ; preds = %49
  %52 = call ptr @dcgettext(ptr noundef null, ptr noundef nonnull @.str.10, i32 noundef 5) #11
  br label %.thread.i.i.i

.thread.i.i.i:                                    ; preds = %51, %49
  %.0.i.i.i.i = phi ptr [ %52, %51 ], [ @.str.10, %49 ]
  %53 = load ptr, ptr %26, align 8, !tbaa !74
  %54 = call i32 (ptr, ...) @error(ptr noundef %.0.i.i.i.i, ptr noundef %53) #11
  call void @llvm.lifetime.end.p0(i64 8, ptr nonnull %9) #11
  call void @llvm.lifetime.end.p0(i64 36, ptr nonnull %8) #11
  br label %run_one_gc_recent_objects_hook.exit.i.i

55:                                               ; preds = %46
  %56 = call i32 @oidset_insert(ptr noundef nonnull %23, ptr noundef nonnull %8) #11
  call void @llvm.lifetime.end.p0(i64 8, ptr nonnull %9) #11
  call void @llvm.lifetime.end.p0(i64 36, ptr nonnull %8) #11
  %57 = call i32 @strbuf_getline(ptr noundef nonnull %7, ptr noundef %42) #11
  %.not9.i.i.i = icmp eq i32 %57, -1
  br i1 %.not9.i.i.i, label %run_one_gc_recent_objects_hook.exit.i.i, label %.lr.ph.i.i.i

run_one_gc_recent_objects_hook.exit.i.i:          ; preds = %55, %.thread.i.i.i, %40
  %.1.i.i.i = phi i32 [ -1, %.thread.i.i.i ], [ 0, %40 ], [ 0, %55 ]
  %58 = call i32 @fclose(ptr noundef %42)
  %59 = call i32 @finish_command(ptr noundef nonnull %6) #11
  %60 = or i32 %59, %.1.i.i.i
  call void @strbuf_release(ptr noundef nonnull %7) #11
  call void @llvm.lifetime.end.p0(i64 24, ptr nonnull %7) #11
  call void @llvm.lifetime.end.p0(i64 120, ptr nonnull %6) #11
  %.not5.i.i = icmp eq i32 %60, 0
  br i1 %.not5.i.i, label %27, label %.loopexit8.i.i

.loopexit8.i.i:                                   ; preds = %run_one_gc_recent_objects_hook.exit.i.i, %run_one_gc_recent_objects_hook.exit.thread.i.i
  %61 = call fastcc ptr @_(ptr noundef nonnull @.str.8)
  call void (ptr, ...) @die(ptr noundef %61) #13
  unreachable

load_gc_recent_objects.exit.i:                    ; preds = %27, %.preheader.i.i, %17
  call void @llvm.lifetime.end.p0(i64 8, ptr nonnull %10) #11
  br label %obj_is_recent.exit

obj_is_recent.exit:                               ; preds = %14, %load_gc_recent_objects.exit.i
  %62 = getelementptr inbounds nuw i8, ptr %4, i64 32
  %63 = call i32 @oidset_contains(ptr noundef nonnull %62, ptr noundef %0) #11
  %.not = icmp eq i32 %63, 0
  br i1 %.not, label %89, label %obj_is_recent.exit.thread

obj_is_recent.exit.thread:                        ; preds = %5, %obj_is_recent.exit
  %64 = load ptr, ptr @the_repository, align 8, !tbaa !65
  %65 = call i32 @oid_object_info(ptr noundef %64, ptr noundef %0, ptr noundef null) #11
  %66 = icmp slt i32 %65, 0
  br i1 %66, label %67, label %69

67:                                               ; preds = %obj_is_recent.exit.thread
  %68 = call ptr @oid_to_hex(ptr noundef %0) #11
  call void (ptr, ...) @die(ptr noundef nonnull @.str.3, ptr noundef %68) #13
  unreachable

69:                                               ; preds = %obj_is_recent.exit.thread
  switch i32 %65, label %78 [
    i32 4, label %70
    i32 1, label %70
    i32 2, label %72
    i32 3, label %75
  ]

70:                                               ; preds = %69, %69
  %71 = call ptr @parse_object_or_die(ptr noundef %0, ptr noundef null) #11
  br label %81

72:                                               ; preds = %69
  %73 = load ptr, ptr @the_repository, align 8, !tbaa !65
  %74 = call ptr @lookup_tree(ptr noundef %73, ptr noundef %0) #11
  br label %81

75:                                               ; preds = %69
  %76 = load ptr, ptr @the_repository, align 8, !tbaa !65
  %77 = call ptr @lookup_blob(ptr noundef %76, ptr noundef %0) #11
  br label %81

78:                                               ; preds = %69
  %79 = call ptr @oid_to_hex(ptr noundef %0) #11
  %80 = call ptr @type_name(i32 noundef %65) #11
  call void (ptr, ...) @die(ptr noundef nonnull @.str.4, ptr noundef %79, ptr noundef %80) #13
  unreachable

81:                                               ; preds = %75, %72, %70
  %.0 = phi ptr [ %77, %75 ], [ %74, %72 ], [ %71, %70 ]
  %.not23 = icmp eq ptr %.0, null
  br i1 %.not23, label %82, label %84

82:                                               ; preds = %81
  %83 = call ptr @oid_to_hex(ptr noundef %0) #11
  call void (ptr, ...) @die(ptr noundef nonnull @.str.5, ptr noundef %83) #13
  unreachable

84:                                               ; preds = %81
  %85 = load ptr, ptr %4, align 8, !tbaa !4
  call void @add_pending_object(ptr noundef %85, ptr noundef nonnull %.0, ptr noundef nonnull @.str.6) #11
  %86 = getelementptr inbounds nuw i8, ptr %4, i64 16
  %87 = load ptr, ptr %86, align 8, !tbaa !17
  %.not24 = icmp eq ptr %87, null
  br i1 %.not24, label %89, label %88

88:                                               ; preds = %84
  call void %87(ptr noundef nonnull %.0, ptr noundef %1, i64 noundef %2, i64 noundef %3) #11
  br label %89

89:                                               ; preds = %84, %88, %obj_is_recent.exit
  ret void
}